target datalayout = "e-m:e-p270:32:32-p271:32:32-p272:64:64-i64:64-i128:128-f80:128-n8:16:32:64-S128"
target triple = "x86_64-pc-linux-gnu"

%struct.jit_State = type { %struct.GCtrace, ptr, ptr, ptr, ptr, ptr, ptr, i32, i32, i32, i8, i8, %struct.IRType1, i8, %struct.FoldState, ptr, i32, i32, i32, i32, i32, i32, i32, [1 x i32], [5 x %union.TValue], [3 x %union.TValue], ptr, i32, i32, i32, i32, ptr, ptr, i32, i32, i8, ptr, i32, i32, i16, [101 x i16], [258 x i32], [15 x i32], [16 x ptr], [64 x %struct.HotPenalty], i32, [16 x %struct.BPropEntry], i32, %struct.ScEvEntry, ptr, i32, i32, i32, ptr, i32, i32, ptr, ptr, ptr, i64, i64, %union.TValue, ptr, i32, i32 }
%struct.GCtrace = type { %struct.GCRef, i8, i8, i16, i32, i32, %struct.GCRef, ptr, i32, i32, ptr, ptr, %struct.GCRef, %struct.MRef, i32, i32, ptr, i32, i16, i16, i16, i16, i16, i16, i16, i8, i8, i8, i8 }
%struct.GCRef = type { i64 }
%struct.MRef = type { i64 }
%struct.IRType1 = type { i8 }
%struct.FoldState = type { %union.IRIns, [2 x %union.IRIns], [2 x %union.IRIns] }
%union.IRIns = type { %struct.GCRef }
%struct.HotPenalty = type { %struct.MRef, i16, i16 }
%struct.BPropEntry = type { i16, i16, i32 }
%struct.ScEvEntry = type { %struct.MRef, i16, i16, i16, i16, %struct.IRType1, i8 }
%union.TValue = type { i64 }
%struct.SnapShot = type { i32, i16, i16, i8, i8, i8, i8 }

; Function Attrs: nounwind uwtable
define internal void @rec_comp_fixup(ptr noundef %0, ptr noundef %1, i32 noundef %2) #0 {
  %4 = alloca ptr, align 8
  %5 = alloca ptr, align 8
  %6 = alloca i32, align 4
  %7 = alloca i32, align 4
  %8 = alloca ptr, align 8
  %9 = alloca ptr, align 8
  %10 = alloca ptr, align 8
  %11 = alloca i64, align 8
  store ptr %0, ptr %4, align 8, !tbaa !4
  store ptr %1, ptr %5, align 8, !tbaa !54
  store i32 %2, ptr %6, align 4, !tbaa !9
  call void @llvm.lifetime.start.p0(i64 4, ptr %7) #9
  %12 = load ptr, ptr %5, align 8, !tbaa !54
  %13 = getelementptr inbounds i32, ptr %12, i64 1
  %14 = load i32, ptr %13, align 4, !tbaa !9
  store i32 %14, ptr %7, align 4, !tbaa !9
  call void @llvm.lifetime.start.p0(i64 8, ptr %8) #9
  %15 = load ptr, ptr %5, align 8, !tbaa !54
  %16 = getelementptr inbounds i32, ptr %15, i64 2
  %17 = load i32, ptr %6, align 4, !tbaa !9
  %18 = icmp ne i32 %17, 0
  br i1 %18, label %19, label %24

19:                                               ; preds = %3
  %20 = load i32, ptr %7, align 4, !tbaa !9
  %21 = lshr i32 %20, 16
  %22 = zext i32 %21 to i64
  %23 = sub nsw i64 %22, 32768
  br label %25

24:                                               ; preds = %3
  br label %25

25:                                               ; preds = %24, %19
  %26 = phi i64 [ %23, %19 ], [ 0, %24 ]
  %27 = getelementptr inbounds i32, ptr %16, i64 %26
  store ptr %27, ptr %8, align 8, !tbaa !54
  call void @llvm.lifetime.start.p0(i64 8, ptr %9) #9
  %28 = load ptr, ptr %4, align 8, !tbaa !4
  %29 = getelementptr inbounds nuw %struct.jit_State, ptr %28, i32 0, i32 0
  %30 = getelementptr inbounds nuw %struct.GCtrace, ptr %29, i32 0, i32 10
  %31 = load ptr, ptr %30, align 8, !tbaa !120
  %32 = load ptr, ptr %4, align 8, !tbaa !4
  %33 = getelementptr inbounds nuw %struct.jit_State, ptr %32, i32 0, i32 0
  %34 = getelementptr inbounds nuw %struct.GCtrace, ptr %33, i32 0, i32 3
  %35 = load i16, ptr %34, align 2, !tbaa !121
  %36 = zext i16 %35 to i32
  %37 = sub nsw i32 %36, 1
  %38 = sext i32 %37 to i64
  %39 = getelementptr inbounds %struct.SnapShot, ptr %31, i64 %38
  store ptr %39, ptr %9, align 8, !tbaa !122
  call void @llvm.lifetime.start.p0(i64 8, ptr %10) #9
  %40 = load ptr, ptr %4, align 8, !tbaa !4
  %41 = getelementptr inbounds nuw %struct.jit_State, ptr %40, i32 0, i32 0
  %42 = getelementptr inbounds nuw %struct.GCtrace, ptr %41, i32 0, i32 11
  %43 = load ptr, ptr %42, align 8, !tbaa !123
  %44 = load ptr, ptr %9, align 8, !tbaa !122
  %45 = getelementptr inbounds nuw %struct.SnapShot, ptr %44, i32 0, i32 0
  %46 = load i32, ptr %45, align 4, !tbaa !124
  %47 = load ptr, ptr %9, align 8, !tbaa !122
  %48 = getelementptr inbounds nuw %struct.SnapShot, ptr %47, i32 0, i32 5
  %49 = load i8, ptr %48, align 2, !tbaa !126
  %50 = zext i8 %49 to i32
  %51 = add i32 %46, %50
  %52 = zext i32 %51 to i64
  %53 = getelementptr inbounds nuw i32, ptr %43, i64 %52
  store ptr %53, ptr %10, align 8, !tbaa !54
  call void @llvm.lifetime.start.p0(i64 8, ptr %11) #9
  %54 = load ptr, ptr %10, align 8, !tbaa !54
  call void @llvm.memcpy.p0.p0.i64(ptr align 8 %11, ptr align 4 %54, i64 8, i1 false)
  %55 = load i64, ptr %11, align 8, !tbaa !49
  %56 = and i64 %55, 255
  %57 = load ptr, ptr %8, align 8, !tbaa !54
  %58 = ptrtoint ptr %57 to i64
  %59 = shl i64 %58, 8
  %60 = or i64 %56, %59
  store i64 %60, ptr %11, align 8, !tbaa !49
  %61 = load ptr, ptr %10, align 8, !tbaa !54
  call void @llvm.memcpy.p0.p0.i64(ptr align 4 %61, ptr align 8 %11, i64 8, i1 false)
  %62 = load ptr, ptr %4, align 8, !tbaa !4
  %63 = getelementptr inbounds nuw %struct.jit_State, ptr %62, i32 0, i32 11
  store i8 1, ptr %63, align 1, !tbaa !41
  %64 = load i32, ptr %7, align 4, !tbaa !9
  %65 = lshr i32 %64, 8
  %66 = and i32 %65, 255
  %67 = load ptr, ptr %4, align 8, !tbaa !4
  %68 = getelementptr inbounds nuw %struct.jit_State, ptr %67, i32 0, i32 8
  %69 = load i32, ptr %68, align 4, !tbaa !44
  %70 = icmp ult i32 %66, %69
  br i1 %70, label %71, label %77

71:                                               ; preds = %25
  %72 = load i32, ptr %7, align 4, !tbaa !9
  %73 = lshr i32 %72, 8
  %74 = and i32 %73, 255
  %75 = load ptr, ptr %4, align 8, !tbaa !4
  %76 = getelementptr inbounds nuw %struct.jit_State, ptr %75, i32 0, i32 8
  store i32 %74, ptr %76, align 4, !tbaa !44
  br label %77

77:                                               ; preds = %71, %25
  %78 = load ptr, ptr %4, align 8, !tbaa !4
  call void @lj_snap_shrink(ptr noundef %78)
  call void @llvm.lifetime.end.p0(i64 8, ptr %11) #9
  call void @llvm.lifetime.end.p0(i64 8, ptr %10) #9
  call void @llvm.lifetime.end.p0(i64 8, ptr %9) #9
  call void @llvm.lifetime.end.p0(i64 8, ptr %8) #9
  call void @llvm.lifetime.end.p0(i64 4, ptr %7) #9
  ret void
}