; Function Attrs: nounwind uwtable
define internal fastcc void @rec_comp_fixup(ptr noundef initializes((181, 182)) %0, ptr noundef %1, i32 noundef range(i32 0, 2) %2) unnamed_addr #0 {
  %4 = getelementptr inbounds nuw i8, ptr %1, i64 4
  %5 = load i32, ptr %4, align 4, !tbaa !37
  %6 = getelementptr inbounds nuw i8, ptr %1, i64 8
  %.not = icmp eq i32 %2, 0
  %7 = lshr i32 %5, 16
  %8 = zext nneg i32 %7 to i64
  %9 = add nsw i64 %8, -32768
  %10 = select i1 %.not, i64 0, i64 %9
  %11 = getelementptr inbounds i32, ptr %6, i64 %10
  %12 = getelementptr inbounds nuw i8, ptr %0, i64 48
  %13 = load ptr, ptr %12, align 8, !tbaa !98
  %14 = getelementptr inbounds nuw i8, ptr %0, i64 10
  %15 = load i16, ptr %14, align 2, !tbaa !99
  %16 = zext i16 %15 to i64
  %17 = getelementptr %struct.SnapShot, ptr %13, i64 %16
  %18 = getelementptr i8, ptr %17, i64 -12
  %19 = getelementptr inbounds nuw i8, ptr %0, i64 56
  %20 = load ptr, ptr %19, align 8, !tbaa !100
  %21 = load i32, ptr %18, align 4, !tbaa !101
  %22 = getelementptr i8, ptr %17, i64 -2
  %23 = load i8, ptr %22, align 2, !tbaa !103
  %24 = zext i8 %23 to i32
  %25 = add i32 %21, %24
  %26 = zext i32 %25 to i64
  %27 = getelementptr inbounds nuw i32, ptr %20, i64 %26
  %.0.copyload = load i64, ptr %27, align 4
  %28 = and i64 %.0.copyload, 255
  %29 = ptrtoint ptr %11 to i64
  %30 = shl i64 %29, 8
  %31 = or disjoint i64 %28, %30
  store i64 %31, ptr %27, align 4
  %32 = getelementptr inbounds nuw i8, ptr %0, i64 181
  store i8 1, ptr %32, align 1, !tbaa !41
  %33 = lshr i32 %5, 8
  %34 = and i32 %33, 255
  %35 = getelementptr inbounds nuw i8, ptr %0, i64 172
  %36 = load i32, ptr %35, align 4, !tbaa !36
  %37 = icmp ult i32 %34, %36
  br i1 %37, label %38, label %39

38:                                               ; preds = %3
  store i32 %34, ptr %35, align 4, !tbaa !36
  br label %39

39:                                               ; preds = %38, %3
  tail call void @lj_snap_shrink(ptr noundef nonnull %0) #8
  ret void
}